target datalayout = "e-m:e-p270:32:32-p271:32:32-p272:64:64-i64:64-i128:128-f80:128-n8:16:32:64-S128"
target triple = "x86_64-unknown-linux-gnu"

@.str = private unnamed_addr constant [31 x i8] c"metadata.google.internal.:8080\00", align 1
@_ZN21grpc_alts_credentialsC1EPK29grpc_alts_credentials_optionsPKc = unnamed_addr alias void (ptr, ptr, ptr), ptr @_ZN21grpc_alts_credentialsC2EPK29grpc_alts_credentials_optionsPKc

; Function Attrs: mustprogress uwtable
define noundef ptr @_Z39grpc_alts_credentials_create_customizedPK29grpc_alts_credentials_optionsPKcb(ptr noundef %options, ptr noundef %handshaker_service_url, i1 noundef zeroext %enable_untrusted_alts) #4 personality ptr @__gxx_personality_v0 {
entry:
  %retval = alloca ptr, align 8
  %options.addr = alloca ptr, align 8
  %handshaker_service_url.addr = alloca ptr, align 8
  %enable_untrusted_alts.addr = alloca i8, align 1
  %exn.slot = alloca ptr, align 8
  %ehselector.slot = alloca i32, align 4
  store ptr %options, ptr %options.addr, align 8
  store ptr %handshaker_service_url, ptr %handshaker_service_url.addr, align 8
  %frombool = zext i1 %enable_untrusted_alts to i8
  store i8 %frombool, ptr %enable_untrusted_alts.addr, align 1
  %0 = load i8, ptr %enable_untrusted_alts.addr, align 1
  %tobool = trunc i8 %0 to i1
  br i1 %tobool, label %if.end, label %land.lhs.true

land.lhs.true:                                    ; preds = %entry
  %call = call noundef zeroext i1 @_Z27grpc_alts_is_running_on_gcpv()
  br i1 %call, label %if.end, label %if.then

if.then:                                          ; preds = %land.lhs.true
  store ptr null, ptr %retval, align 8
  br label %return

if.end:                                           ; preds = %land.lhs.true, %entry
  %call1 = call noalias noundef nonnull ptr @_Znwm(i64 noundef 32) #14
  %1 = load ptr, ptr %options.addr, align 8
  %2 = load ptr, ptr %handshaker_service_url.addr, align 8
  invoke void @_ZN21grpc_alts_credentialsC1EPK29grpc_alts_credentials_optionsPKc(ptr noundef nonnull align 8 dereferenceable(32) %call1, ptr noundef %1, ptr noundef %2)
          to label %invoke.cont unwind label %lpad

invoke.cont:                                      ; preds = %if.end
  store ptr %call1, ptr %retval, align 8
  br label %return

lpad:                                             ; preds = %if.end
  %3 = landingpad { ptr, i32 }
          cleanup
  %4 = extractvalue { ptr, i32 } %3, 0
  store ptr %4, ptr %exn.slot, align 8
  %5 = extractvalue { ptr, i32 } %3, 1
  store i32 %5, ptr %ehselector.slot, align 4
  call void @_ZdlPv(ptr noundef %call1) #13
  br label %eh.resume

return:                                           ; preds = %invoke.cont, %if.then
  %6 = load ptr, ptr %retval, align 8
  ret ptr %6

eh.resume:                                        ; preds = %lpad
  %exn = load ptr, ptr %exn.slot, align 8
  %sel = load i32, ptr %ehselector.slot, align 4
  %lpad.val = insertvalue { ptr, i32 } poison, ptr %exn, 0
  %lpad.val2 = insertvalue { ptr, i32 } %lpad.val, i32 %sel, 1
  resume { ptr, i32 } %lpad.val2
}

; Function Attrs: mustprogress uwtable
define ptr @grpc_alts_credentials_create(ptr noundef %options) #4 {
entry:
  %options.addr = alloca ptr, align 8
  store ptr %options, ptr %options.addr, align 8
  %0 = load ptr, ptr %options.addr, align 8
  %call = call noundef ptr @_Z39grpc_alts_credentials_create_customizedPK29grpc_alts_credentials_optionsPKcb(ptr noundef %0, ptr noundef @.str, i1 noundef zeroext false)
  ret ptr %call
}